; ModuleID = '40/2783.c'
source_filename = "40/2783.c"
target datalayout = "e-m:e-p270:32:32-p271:32:32-p272:64:64-i64:64-f80:128-n8:16:32:64-S128"
target triple = "x86_64-pc-linux-gnu"

@.str = private unnamed_addr constant [20 x i8] c"%lf\0A%lf\0A%lf\0A%lf\0A%lf\00", align 1
@.str.1 = private unnamed_addr constant [15 x i8] c"Invalid input\0A\00", align 1
@.str.2 = private unnamed_addr constant [7 x i8] c"%.4lf\0A\00", align 1

; Function Attrs: noinline nounwind uwtable
define dso_local i32 @main() #0 {
  %1 = alloca i32, align 4
  %2 = alloca double, align 8
  %3 = alloca double, align 8
  %4 = alloca double, align 8
  %5 = alloca double, align 8
  %6 = alloca double, align 8
  %7 = alloca double, align 8
  %8 = alloca double, align 8
  store i32 0, i32* %1, align 4
  %9 = call i32 (i8*, ...) @__isoc99_scanf(i8* getelementptr inbounds ([20 x i8], [20 x i8]* @.str, i64 0, i64 0), double* %2, double* %3, double* %4, double* %5, double* %6)
  %10 = load double, double* %2, align 8
  %11 = load double, double* %3, align 8
  %12 = fadd double %10, %11
  %13 = load double, double* %4, align 8
  %14 = fadd double %12, %13
  %15 = load double, double* %5, align 8
  %16 = fadd double %14, %15
  %17 = fdiv double %16, 2.000000e+00
  store double %17, double* %7, align 8
  %18 = load double, double* %7, align 8
  %19 = load double, double* %2, align 8
  %20 = fsub double %18, %19
  %21 = load double, double* %7, align 8
  %22 = load double, double* %3, align 8
  %23 = fsub double %21, %22
  %24 = fmul double %20, %23
  %25 = load double, double* %7, align 8
  %26 = load double, double* %4, align 8
  %27 = fsub double %25, %26
  %28 = fmul double %24, %27
  %29 = load double, double* %7, align 8
  %30 = load double, double* %5, align 8
  %31 = fsub double %29, %30
  %32 = fmul double %28, %31
  %33 = fcmp ole double %32, 0.000000e+00
  br i1 %33, label %34, label %36

34:                                               ; preds = %0
  %35 = call i32 (i8*, ...) @printf(i8* getelementptr inbounds ([15 x i8], [15 x i8]* @.str.1, i64 0, i64 0))
  br label %73

36:                                               ; preds = %0
  %37 = load double, double* %7, align 8
  %38 = load double, double* %2, align 8
  %39 = fsub double %37, %38
  %40 = load double, double* %7, align 8
  %41 = load double, double* %3, align 8
  %42 = fsub double %40, %41
  %43 = fmul double %39, %42
  %44 = load double, double* %7, align 8
  %45 = load double, double* %4, align 8
  %46 = fsub double %44, %45
  %47 = fmul double %43, %46
  %48 = load double, double* %7, align 8
  %49 = load double, double* %5, align 8
  %50 = fsub double %48, %49
  %51 = fmul double %47, %50
  %52 = load double, double* %2, align 8
  %53 = load double, double* %3, align 8
  %54 = fmul double %52, %53
  %55 = load double, double* %4, align 8
  %56 = fmul double %54, %55
  %57 = load double, double* %5, align 8
  %58 = fmul double %56, %57
  %59 = load double, double* %6, align 8
  %60 = fmul double 1.000000e+02, %59
  %61 = fdiv double %60, 3.600000e+02
  %62 = call double @cos(double %61) #3
  %63 = fmul double %58, %62
  %64 = load double, double* %6, align 8
  %65 = fmul double 1.000000e+02, %64
  %66 = fdiv double %65, 3.600000e+02
  %67 = call double @cos(double %66) #3
  %68 = fmul double %63, %67
  %69 = fsub double %51, %68
  %70 = call double @sqrt(double %69) #3
  store double %70, double* %8, align 8
  %71 = load double, double* %8, align 8
  %72 = call i32 (i8*, ...) @printf(i8* getelementptr inbounds ([7 x i8], [7 x i8]* @.str.2, i64 0, i64 0), double %71)
  br label %73

73:                                               ; preds = %36, %34
  ret i32 0
}

declare dso_local i32 @__isoc99_scanf(i8*, ...) #1

declare dso_local i32 @printf(i8*, ...) #1

; Function Attrs: nounwind
declare dso_local double @sqrt(double) #2

; Function Attrs: nounwind
declare dso_local double @cos(double) #2


!llvm.module.flags = !{!0}
!llvm.ident = !{!1}

!0 = !{i32 1, !"wchar_size", i32 4}
!1 = !{!"clang version 10.0.0-4ubuntu1 "}
